target datalayout = "e-m:e-p270:32:32-p271:32:32-p272:64:64-i64:64-i128:128-f80:128-n8:16:32:64-S128"
target triple = "x86_64-pc-linux-gnu"

%struct.pg_conn = type { ptr, ptr, ptr, ptr, ptr, ptr, ptr, ptr, ptr, ptr, ptr, ptr, ptr, ptr, ptr, ptr, ptr, ptr, ptr, ptr, ptr, ptr, ptr, ptr, ptr, ptr, ptr, ptr, ptr, ptr, ptr, ptr, ptr, ptr, ptr, ptr, ptr, ptr, ptr, ptr, ptr, ptr, ptr, i8, ptr, i32, %struct.PGNoticeHooks, ptr, i32, i32, i32, i32, i32, [6 x i8], i8, i8, i32, i8, i8, i32, i8, i32, ptr, ptr, i32, i32, ptr, ptr, ptr, ptr, ptr, i32, %struct.SockAddr, %struct.SockAddr, i32, i32, i8, i8, i8, i8, i8, i8, ptr, i8, i32, [1 x ptr], i8, i8, ptr, ptr, i32, i32, i32, i8, i8, i32, i32, ptr, i8, i64, ptr, i64, ptr, i32, i32, ptr, i32, i8, i32, i32, i32, i32, ptr, %struct.pg_prng_state, ptr, i32, i32, i32, i32, ptr, i32, i32, i32, i32, ptr, i32, ptr, i8, ptr, ptr, ptr, i32, i8, i8, i8, i8, i8, i8, i8, i8, %struct.PQExpBufferData, i32, %struct.PQExpBufferData }
%struct.PGNoticeHooks = type { ptr, ptr, ptr, ptr }
%struct.SockAddr = type { %struct.sockaddr_storage, i32 }
%struct.sockaddr_storage = type { i16, [118 x i8], i64 }
%struct.pg_prng_state = type { i64, i64 }
%struct.PQExpBufferData = type { ptr, i64, i64 }

@.str.82 = private unnamed_addr constant [6 x i8] c"57P03\00", align 1

; Function Attrs: nounwind uwtable
define void @PQfinish(ptr noundef %0) #0 {
  %2 = alloca ptr, align 8
  store ptr %0, ptr %2, align 8
  %3 = load ptr, ptr %2, align 8
  %4 = icmp ne ptr %3, null
  br i1 %4, label %5, label %8

5:                                                ; preds = %1
  %6 = load ptr, ptr %2, align 8
  call void @pqClosePGconn(ptr noundef %6)
  %7 = load ptr, ptr %2, align 8
  call void @freePGconn(ptr noundef %7)
  br label %8

8:                                                ; preds = %5, %1
  ret void
}

; Function Attrs: nounwind uwtable
define internal i32 @internal_ping(ptr noundef %0) #0 {
  %2 = alloca i32, align 4
  %3 = alloca ptr, align 8
  store ptr %0, ptr %3, align 8
  %4 = load ptr, ptr %3, align 8
  %5 = icmp ne ptr %4, null
  br i1 %5, label %6, label %11

6:                                                ; preds = %1
  %7 = load ptr, ptr %3, align 8
  %8 = getelementptr inbounds nuw %struct.pg_conn, ptr %7, i32 0, i32 54
  %9 = load i8, ptr %8, align 2, !range !3, !noundef !4
  %10 = trunc i8 %9 to i1
  br i1 %10, label %12, label %11

11:                                               ; preds = %6, %1
  store i32 3, ptr %2, align 4
  br label %47

12:                                               ; preds = %6
  %13 = load ptr, ptr %3, align 8
  %14 = getelementptr inbounds nuw %struct.pg_conn, ptr %13, i32 0, i32 50
  %15 = load i32, ptr %14, align 8
  %16 = icmp ne i32 %15, 1
  br i1 %16, label %17, label %20

17:                                               ; preds = %12
  %18 = load ptr, ptr %3, align 8
  %19 = call i32 @pqConnectDBComplete(ptr noundef %18)
  br label %20

20:                                               ; preds = %17, %12
  %21 = load ptr, ptr %3, align 8
  %22 = getelementptr inbounds nuw %struct.pg_conn, ptr %21, i32 0, i32 50
  %23 = load i32, ptr %22, align 8
  %24 = icmp ne i32 %23, 1
  br i1 %24, label %25, label %26

25:                                               ; preds = %20
  store i32 0, ptr %2, align 4
  br label %47

26:                                               ; preds = %20
  %27 = load ptr, ptr %3, align 8
  %28 = getelementptr inbounds nuw %struct.pg_conn, ptr %27, i32 0, i32 76
  %29 = load i8, ptr %28, align 8, !range !3, !noundef !4
  %30 = trunc i8 %29 to i1
  br i1 %30, label %31, label %32

31:                                               ; preds = %26
  store i32 0, ptr %2, align 4
  br label %47

32:                                               ; preds = %26
  %33 = load ptr, ptr %3, align 8
  %34 = getelementptr inbounds nuw %struct.pg_conn, ptr %33, i32 0, i32 53
  %35 = getelementptr inbounds [6 x i8], ptr %34, i64 0, i64 0
  %36 = call i64 @strlen(ptr noundef %35) #13
  %37 = icmp ne i64 %36, 5
  br i1 %37, label %38, label %39

38:                                               ; preds = %32
  store i32 2, ptr %2, align 4
  br label %47

39:                                               ; preds = %32
  %40 = load ptr, ptr %3, align 8
  %41 = getelementptr inbounds nuw %struct.pg_conn, ptr %40, i32 0, i32 53
  %42 = getelementptr inbounds [6 x i8], ptr %41, i64 0, i64 0
  %43 = call i32 @strcmp(ptr noundef %42, ptr noundef @.str.82) #13
  %44 = icmp eq i32 %43, 0
  br i1 %44, label %45, label %46

45:                                               ; preds = %39
  store i32 1, ptr %2, align 4
  br label %47

46:                                               ; preds = %39
  store i32 0, ptr %2, align 4
  br label %47

47:                                               ; preds = %46, %45, %38, %31, %25, %11
  %48 = load i32, ptr %2, align 4
  ret i32 %48
}

; Function Attrs: nounwind uwtable
define i32 @PQping(ptr noundef %0) #0 {
  %2 = alloca ptr, align 8
  %3 = alloca ptr, align 8
  %4 = alloca i32, align 4
  store ptr %0, ptr %2, align 8
  call void @llvm.lifetime.start.p0(i64 8, ptr %3) #12
  %5 = load ptr, ptr %2, align 8
  %6 = call ptr @PQconnectStart(ptr noundef %5)
  store ptr %6, ptr %3, align 8
  call void @llvm.lifetime.start.p0(i64 4, ptr %4) #12
  %7 = load ptr, ptr %3, align 8
  %8 = call i32 @internal_ping(ptr noundef %7)
  store i32 %8, ptr %4, align 4
  %9 = load ptr, ptr %3, align 8
  call void @PQfinish(ptr noundef %9)
  %10 = load i32, ptr %4, align 4
  call void @llvm.lifetime.end.p0(i64 4, ptr %4) #12
  call void @llvm.lifetime.end.p0(i64 8, ptr %3) #12
  ret i32 %10
}