; Function Attrs: nounwind uwtable
define range(i32 0, 4) i32 @PQping(ptr noundef %0) local_unnamed_addr #0 {
  %2 = tail call ptr @PQconnectStart(ptr noundef %0)
  %.not.i = icmp eq ptr %2, null
  br i1 %.not.i, label %PQfinish.exit, label %3

3:                                                ; preds = %1
  %4 = getelementptr inbounds nuw i8, ptr %2, i64 434
  %5 = load i8, ptr %4, align 2, !range !13, !noundef !14
  %6 = trunc nuw i8 %5 to i1
  br i1 %6, label %7, label %21

7:                                                ; preds = %3
  %8 = getelementptr inbounds nuw i8, ptr %2, i64 416
  %9 = load i32, ptr %8, align 8
  %.not9.i = icmp eq i32 %9, 1
  br i1 %.not9.i, label %.thread.i, label %10

10:                                               ; preds = %7
  %11 = tail call i32 @pqConnectDBComplete(ptr noundef nonnull %2)
  %.pr.i = load i32, ptr %8, align 8
  %.not10.i = icmp eq i32 %.pr.i, 1
  br i1 %.not10.i, label %.thread.i, label %21

.thread.i:                                        ; preds = %10, %7
  %12 = getelementptr inbounds nuw i8, ptr %2, i64 808
  %13 = load i8, ptr %12, align 8, !range !13, !noundef !14
  %14 = trunc nuw i8 %13 to i1
  br i1 %14, label %21, label %15

15:                                               ; preds = %.thread.i
  %16 = getelementptr inbounds nuw i8, ptr %2, i64 428
  %17 = tail call i64 @strlen(ptr noundef nonnull dereferenceable(1) %16) #26
  %.not11.i = icmp eq i64 %17, 5
  br i1 %.not11.i, label %18, label %21

18:                                               ; preds = %15
  %19 = tail call i32 @strcmp(ptr noundef nonnull dereferenceable(1) %16, ptr noundef nonnull dereferenceable(6) @.str.82) #26
  %20 = icmp eq i32 %19, 0
  %..i = zext i1 %20 to i32
  br label %21

21:                                               ; preds = %3, %10, %.thread.i, %15, %18
  %.0.i.ph = phi i32 [ %..i, %18 ], [ 2, %15 ], [ 0, %.thread.i ], [ 0, %10 ], [ 3, %3 ]
  tail call void @pqClosePGconn(ptr noundef nonnull %2)
  tail call fastcc void @freePGconn(ptr noundef %2)
  br label %PQfinish.exit

PQfinish.exit:                                    ; preds = %1, %21
  %.0.i6 = phi i32 [ %.0.i.ph, %21 ], [ 3, %1 ]
  ret i32 %.0.i6
}